; Function Attrs: mustprogress nounwind uwtable
define dso_local { <2 x float>, <2 x float> } @_ZNK11btRigidBody14getOrientationEv(ptr noundef nonnull align 8 dereferenceable(744) %this) local_unnamed_addr #3 align 2 {
entry:
  %retval = alloca %class.btQuaternion, align 8
  %m_worldTransform = getelementptr inbounds i8, ptr %this, i64 8
  call void @_ZNK11btMatrix3x311getRotationER12btQuaternion(ptr noundef nonnull align 4 dereferenceable(48) %m_worldTransform, ptr noundef nonnull align 4 dereferenceable(16) %retval)
  %.fca.0.load = load <2 x float>, ptr %retval, align 8
  %.fca.0.insert = insertvalue { <2 x float>, <2 x float> } poison, <2 x float> %.fca.0.load, 0
  %.fca.1.gep = getelementptr inbounds i8, ptr %retval, i64 8
  %.fca.1.load = load <2 x float>, ptr %.fca.1.gep, align 8
  %.fca.1.insert = insertvalue { <2 x float>, <2 x float> } %.fca.0.insert, <2 x float> %.fca.1.load, 1
  ret { <2 x float>, <2 x float> } %.fca.1.insert
}